; Function Attrs: mustprogress ssp uwtable
define internal noundef zeroext i1 @"_ZNSt17_Function_handlerIFviRSt6vectorIN5Eigen6MatrixIdLi6ELi1ELi0ELi6ELi1EEENS1_17aligned_allocatorIS3_EEERS0_IdSaIdEESA_EZNK6open3d9pipelines12registration37TransformationEstimationForColoredICP21ComputeTransformationERKNSC_8geometry10PointCloudESJ_RKS0_INS2_IiLi2ELi1ELi0ELi2ELi1EEESaISK_EEE3$_0E10_M_managerERSt9_Any_dataRKSR_St18_Manager_operation"(ptr noundef nonnull align 8 captures(none) dereferenceable(16) %0, ptr noundef nonnull readonly align 8 captures(none) dereferenceable(16) %1, i32 noundef %2) #2 align 2 {
  switch i32 %2, label %"_ZNSt14_Function_base13_Base_managerIZNK6open3d9pipelines12registration37TransformationEstimationForColoredICP21ComputeTransformationERKNS1_8geometry10PointCloudES8_RKSt6vectorIN5Eigen6MatrixIiLi2ELi1ELi0ELi2ELi1EEESaISC_EEE3$_0E10_M_managerERSt9_Any_dataRKSJ_St18_Manager_operation.exit" [
    i32 0, label %4
    i32 1, label %5
    i32 3, label %8
    i32 2, label %6
  ]

4:                                                ; preds = %3
  store ptr @"_ZTIZNK6open3d9pipelines12registration37TransformationEstimationForColoredICP21ComputeTransformationERKNS_8geometry10PointCloudES6_RKSt6vectorIN5Eigen6MatrixIiLi2ELi1ELi0ELi2ELi1EEESaISA_EEE3$_0", ptr %0, align 8, !tbaa !139
  br label %"_ZNSt14_Function_base13_Base_managerIZNK6open3d9pipelines12registration37TransformationEstimationForColoredICP21ComputeTransformationERKNS1_8geometry10PointCloudES8_RKSt6vectorIN5Eigen6MatrixIiLi2ELi1ELi0ELi2ELi1EEESaISC_EEE3$_0E10_M_managerERSt9_Any_dataRKSJ_St18_Manager_operation.exit"

5:                                                ; preds = %3
  %.val = load ptr, ptr %1, align 8, !tbaa !50
  store ptr %.val, ptr %0, align 8, !tbaa !50
  br label %"_ZNSt14_Function_base13_Base_managerIZNK6open3d9pipelines12registration37TransformationEstimationForColoredICP21ComputeTransformationERKNS1_8geometry10PointCloudES8_RKSt6vectorIN5Eigen6MatrixIiLi2ELi1ELi0ELi2ELi1EEESaISC_EEE3$_0E10_M_managerERSt9_Any_dataRKSJ_St18_Manager_operation.exit"

6:                                                ; preds = %3
  %.val6 = load ptr, ptr %1, align 8
  %7 = tail call noalias noundef nonnull dereferenceable(56) ptr @_Znwm(i64 noundef 56) #41
  tail call void @llvm.memcpy.p0.p0.i64(ptr noundef nonnull align 16 dereferenceable(56) %7, ptr noundef nonnull readonly align 8 dereferenceable(56) %.val6, i64 56, i1 false), !tbaa.struct !141
  store ptr %7, ptr %0, align 8, !tbaa !50
  br label %"_ZNSt14_Function_base13_Base_managerIZNK6open3d9pipelines12registration37TransformationEstimationForColoredICP21ComputeTransformationERKNS1_8geometry10PointCloudES8_RKSt6vectorIN5Eigen6MatrixIiLi2ELi1ELi0ELi2ELi1EEESaISC_EEE3$_0E10_M_managerERSt9_Any_dataRKSJ_St18_Manager_operation.exit"

8:                                                ; preds = %3
  %.val7.i = load ptr, ptr %0, align 8, !tbaa !50
  %9 = icmp eq ptr %.val7.i, null
  br i1 %9, label %"_ZNSt14_Function_base13_Base_managerIZNK6open3d9pipelines12registration37TransformationEstimationForColoredICP21ComputeTransformationERKNS1_8geometry10PointCloudES8_RKSt6vectorIN5Eigen6MatrixIiLi2ELi1ELi0ELi2ELi1EEESaISC_EEE3$_0E10_M_managerERSt9_Any_dataRKSJ_St18_Manager_operation.exit", label %10

10:                                               ; preds = %8
  tail call void @_ZdlPvm(ptr noundef nonnull %.val7.i, i64 noundef 56) #39
  br label %"_ZNSt14_Function_base13_Base_managerIZNK6open3d9pipelines12registration37TransformationEstimationForColoredICP21ComputeTransformationERKNS1_8geometry10PointCloudES8_RKSt6vectorIN5Eigen6MatrixIiLi2ELi1ELi0ELi2ELi1EEESaISC_EEE3$_0E10_M_managerERSt9_Any_dataRKSJ_St18_Manager_operation.exit"

"_ZNSt14_Function_base13_Base_managerIZNK6open3d9pipelines12registration37TransformationEstimationForColoredICP21ComputeTransformationERKNS1_8geometry10PointCloudES8_RKSt6vectorIN5Eigen6MatrixIiLi2ELi1ELi0ELi2ELi1EEESaISC_EEE3$_0E10_M_managerERSt9_Any_dataRKSJ_St18_Manager_operation.exit": ; preds = %3, %10, %8, %6, %5, %4
  ret i1 false
}